target datalayout = "e-m:e-p270:32:32-p271:32:32-p272:64:64-i64:64-i128:128-f80:128-n8:16:32:64-S128"
target triple = "x86_64-pc-linux-gnu"

%"class.cvc5::internal::theory::SortInference::UnionFind" = type { %"class.std::map", %"class.std::vector" }
%"class.std::map" = type { %"class.std::_Rb_tree" }
%"class.std::_Rb_tree" = type { %"struct.std::_Rb_tree<int, std::pair<const int, int>, std::_Select1st<std::pair<const int, int>>, std::less<int>>::_Rb_tree_impl" }
%"struct.std::_Rb_tree<int, std::pair<const int, int>, std::_Select1st<std::pair<const int, int>>, std::less<int>>::_Rb_tree_impl" = type { [8 x i8], %"struct.std::_Rb_tree_header" }
%"struct.std::_Rb_tree_header" = type { %"struct.std::_Rb_tree_node_base", i64 }
%"struct.std::_Rb_tree_node_base" = type { i32, ptr, ptr, ptr }
%"class.std::vector" = type { %"struct.std::_Vector_base" }
%"struct.std::_Vector_base" = type { %"struct.std::_Vector_base<std::pair<int, int>, std::allocator<std::pair<int, int>>>::_Vector_impl" }
%"struct.std::_Vector_base<std::pair<int, int>, std::allocator<std::pair<int, int>>>::_Vector_impl" = type { %"struct.std::_Vector_base<std::pair<int, int>, std::allocator<std::pair<int, int>>>::_Vector_impl_data" }
%"struct.std::_Vector_base<std::pair<int, int>, std::allocator<std::pair<int, int>>>::_Vector_impl_data" = type { ptr, ptr, ptr }
%"struct.std::pair.8" = type { i32, i32 }

; Function Attrs: mustprogress uwtable
define linkonce_odr hidden noundef zeroext i1 @_ZN4cvc58internal6theory13SortInference9UnionFind8areEqualEii(ptr noundef nonnull align 8 dereferenceable(72) %0, i32 noundef %1, i32 noundef %2) #4 comdat align 2 {
  %4 = alloca ptr, align 8
  %5 = alloca i32, align 4
  %6 = alloca i32, align 4
  store ptr %0, ptr %4, align 8, !tbaa !3
  store i32 %1, ptr %5, align 4, !tbaa !18
  store i32 %2, ptr %6, align 4, !tbaa !18
  %7 = load ptr, ptr %4, align 8
  %8 = load i32, ptr %5, align 4, !tbaa !18
  %9 = call noundef i32 @_ZN4cvc58internal6theory13SortInference9UnionFind17getRepresentativeEi(ptr noundef nonnull align 8 dereferenceable(72) %7, i32 noundef %8)
  %10 = load i32, ptr %6, align 4, !tbaa !18
  %11 = call noundef i32 @_ZN4cvc58internal6theory13SortInference9UnionFind17getRepresentativeEi(ptr noundef nonnull align 8 dereferenceable(72) %7, i32 noundef %10)
  %12 = icmp eq i32 %9, %11
  ret i1 %12
}

; Function Attrs: mustprogress nounwind uwtable
define linkonce_odr hidden noundef nonnull align 4 dereferenceable(8) ptr @_ZNSt6vectorISt4pairIiiESaIS1_EEixEm(ptr noundef nonnull align 8 dereferenceable(24) %0, i64 noundef %1) #6 comdat align 2 {
  %3 = alloca ptr, align 8
  %4 = alloca i64, align 8
  store ptr %0, ptr %3, align 8, !tbaa !57
  store i64 %1, ptr %4, align 8, !tbaa !50
  %5 = load ptr, ptr %3, align 8
  %6 = getelementptr inbounds nuw %"struct.std::_Vector_base", ptr %5, i32 0, i32 0
  %7 = getelementptr inbounds nuw %"struct.std::_Vector_base<std::pair<int, int>, std::allocator<std::pair<int, int>>>::_Vector_impl_data", ptr %6, i32 0, i32 0
  %8 = load ptr, ptr %7, align 8, !tbaa !62
  %9 = load i64, ptr %4, align 8, !tbaa !50
  %10 = getelementptr inbounds nuw %"struct.std::pair.8", ptr %8, i64 %9
  ret ptr %10
}

; Function Attrs: mustprogress nounwind uwtable
define linkonce_odr hidden noundef i64 @_ZNKSt6vectorISt4pairIiiESaIS1_EE4sizeEv(ptr noundef nonnull align 8 dereferenceable(24) %0) #6 comdat align 2 {
  %2 = alloca ptr, align 8
  store ptr %0, ptr %2, align 8, !tbaa !57
  %3 = load ptr, ptr %2, align 8
  %4 = getelementptr inbounds nuw %"struct.std::_Vector_base", ptr %3, i32 0, i32 0
  %5 = getelementptr inbounds nuw %"struct.std::_Vector_base<std::pair<int, int>, std::allocator<std::pair<int, int>>>::_Vector_impl_data", ptr %4, i32 0, i32 1
  %6 = load ptr, ptr %5, align 8, !tbaa !59
  %7 = getelementptr inbounds nuw %"struct.std::_Vector_base", ptr %3, i32 0, i32 0
  %8 = getelementptr inbounds nuw %"struct.std::_Vector_base<std::pair<int, int>, std::allocator<std::pair<int, int>>>::_Vector_impl_data", ptr %7, i32 0, i32 0
  %9 = load ptr, ptr %8, align 8, !tbaa !62
  %10 = ptrtoint ptr %6 to i64
  %11 = ptrtoint ptr %9 to i64
  %12 = sub i64 %10, %11
  %13 = sdiv exact i64 %12, 8
  ret i64 %13
}

; Function Attrs: mustprogress uwtable
define hidden noundef zeroext i1 @_ZN4cvc58internal6theory13SortInference9UnionFind7isValidEv(ptr noundef nonnull align 8 dereferenceable(72) %0) #4 align 2 {
  %2 = alloca i1, align 1
  %3 = alloca ptr, align 8
  %4 = alloca i32, align 4
  %5 = alloca i32, align 4
  store ptr %0, ptr %3, align 8, !tbaa !3
  %6 = load ptr, ptr %3, align 8
  call void @llvm.lifetime.start.p0(i64 4, ptr %4) #3
  store i32 0, ptr %4, align 4, !tbaa !18
  br label %7

7:                                                ; preds = %30, %1
  %8 = load i32, ptr %4, align 4, !tbaa !18
  %9 = zext i32 %8 to i64
  %10 = getelementptr inbounds nuw %"class.cvc5::internal::theory::SortInference::UnionFind", ptr %6, i32 0, i32 1
  %11 = call noundef i64 @_ZNKSt6vectorISt4pairIiiESaIS1_EE4sizeEv(ptr noundef nonnull align 8 dereferenceable(24) %10) #3
  %12 = icmp ult i64 %9, %11
  br i1 %12, label %14, label %13

13:                                               ; preds = %7
  store i32 2, ptr %5, align 4
  br label %33

14:                                               ; preds = %7
  %15 = getelementptr inbounds nuw %"class.cvc5::internal::theory::SortInference::UnionFind", ptr %6, i32 0, i32 1
  %16 = load i32, ptr %4, align 4, !tbaa !18
  %17 = zext i32 %16 to i64
  %18 = call noundef nonnull align 4 dereferenceable(8) ptr @_ZNSt6vectorISt4pairIiiESaIS1_EEixEm(ptr noundef nonnull align 8 dereferenceable(24) %15, i64 noundef %17) #3
  %19 = getelementptr inbounds nuw %"struct.std::pair.8", ptr %18, i32 0, i32 0
  %20 = load i32, ptr %19, align 4, !tbaa !78
  %21 = getelementptr inbounds nuw %"class.cvc5::internal::theory::SortInference::UnionFind", ptr %6, i32 0, i32 1
  %22 = load i32, ptr %4, align 4, !tbaa !18
  %23 = zext i32 %22 to i64
  %24 = call noundef nonnull align 4 dereferenceable(8) ptr @_ZNSt6vectorISt4pairIiiESaIS1_EEixEm(ptr noundef nonnull align 8 dereferenceable(24) %21, i64 noundef %23) #3
  %25 = getelementptr inbounds nuw %"struct.std::pair.8", ptr %24, i32 0, i32 1
  %26 = load i32, ptr %25, align 4, !tbaa !80
  %27 = call noundef zeroext i1 @_ZN4cvc58internal6theory13SortInference9UnionFind8areEqualEii(ptr noundef nonnull align 8 dereferenceable(72) %6, i32 noundef %20, i32 noundef %26)
  br i1 %27, label %28, label %29

28:                                               ; preds = %14
  store i1 false, ptr %2, align 1
  store i32 1, ptr %5, align 4
  br label %33

29:                                               ; preds = %14
  br label %30

30:                                               ; preds = %29
  %31 = load i32, ptr %4, align 4, !tbaa !18
  %32 = add i32 %31, 1
  store i32 %32, ptr %4, align 4, !tbaa !18
  br label %7, !llvm.loop !81

33:                                               ; preds = %28, %13
  call void @llvm.lifetime.end.p0(i64 4, ptr %4) #3
  %34 = load i32, ptr %5, align 4
  switch i32 %34, label %38 [
    i32 2, label %35
    i32 1, label %36
  ]

35:                                               ; preds = %33
  store i1 true, ptr %2, align 1
  br label %36

36:                                               ; preds = %35, %33
  %37 = load i1, ptr %2, align 1
  ret i1 %37

38:                                               ; preds = %33
  unreachable
}