; Function Attrs: mustprogress uwtable
define hidden noundef zeroext i1 @_ZN4cvc58internal6theory13SortInference9UnionFind7isValidEv(ptr noundef nonnull align 8 dereferenceable(72) %0) local_unnamed_addr #6 align 2 {
  %2 = getelementptr inbounds nuw i8, ptr %0, i64 48
  %3 = getelementptr inbounds nuw i8, ptr %0, i64 56
  %4 = load ptr, ptr %3, align 8, !tbaa !18
  %5 = load ptr, ptr %2, align 8, !tbaa !15
  %6 = icmp eq ptr %4, %5
  br i1 %6, label %._crit_edge, label %.lr.ph

7:                                                ; preds = %.lr.ph
  %8 = add i32 %.069, 1
  %9 = zext i32 %8 to i64
  %10 = load ptr, ptr %3, align 8, !tbaa !18
  %11 = load ptr, ptr %2, align 8, !tbaa !15
  %12 = ptrtoint ptr %10 to i64
  %13 = ptrtoint ptr %11 to i64
  %14 = sub i64 %12, %13
  %15 = ashr exact i64 %14, 3
  %.not = icmp ugt i64 %15, %9
  br i1 %.not, label %.lr.ph, label %._crit_edge, !llvm.loop !29

.lr.ph:                                           ; preds = %1, %7
  %16 = phi ptr [ %11, %7 ], [ %5, %1 ]
  %17 = phi i64 [ %9, %7 ], [ 0, %1 ]
  %.069 = phi i32 [ %8, %7 ], [ 0, %1 ]
  %18 = getelementptr inbounds nuw %"struct.std::pair.8", ptr %16, i64 %17
  %19 = load i32, ptr %18, align 4, !tbaa !30
  %20 = getelementptr inbounds nuw i8, ptr %18, i64 4
  %21 = load i32, ptr %20, align 4, !tbaa !32
  %22 = tail call noundef i32 @_ZN4cvc58internal6theory13SortInference9UnionFind17getRepresentativeEi(ptr noundef nonnull align 8 dereferenceable(72) %0, i32 noundef %19)
  %23 = tail call noundef i32 @_ZN4cvc58internal6theory13SortInference9UnionFind17getRepresentativeEi(ptr noundef nonnull align 8 dereferenceable(72) %0, i32 noundef %21)
  %.not12.not = icmp ne i32 %22, %23
  br i1 %.not12.not, label %7, label %._crit_edge

._crit_edge:                                      ; preds = %7, %.lr.ph, %1
  %.lcssa = phi i1 [ true, %1 ], [ %.not12.not, %.lr.ph ], [ %.not12.not, %7 ]
  ret i1 %.lcssa
}